target datalayout = "e-m:e-p270:32:32-p271:32:32-p272:64:64-i64:64-i128:128-f80:128-n8:16:32:64-S128"
target triple = "x86_64-pc-linux-gnu"

%struct.mspack_system = type { ptr, ptr, ptr, ptr, ptr, ptr, ptr, ptr, ptr, ptr, ptr }
%struct.msszdd_decompressor_p = type { %struct.msszdd_decompressor, ptr, i32 }
%struct.msszdd_decompressor = type { ptr, ptr, ptr, ptr, ptr }
%struct.msszddd_header_p = type { %struct.msszddd_header, ptr }
%struct.msszddd_header = type { i32, i64, i8 }

; Function Attrs: nounwind uwtable
define internal void @szddd_close(ptr noundef %0, ptr noundef %1) #0 {
  %3 = alloca ptr, align 8
  %4 = alloca ptr, align 8
  %5 = alloca ptr, align 8
  %6 = alloca ptr, align 8
  %7 = alloca i32, align 4
  store ptr %0, ptr %3, align 8, !tbaa !22
  store ptr %1, ptr %4, align 8, !tbaa !29
  call void @llvm.lifetime.start.p0(i64 8, ptr %5) #4
  %8 = load ptr, ptr %3, align 8, !tbaa !22
  store ptr %8, ptr %5, align 8, !tbaa !8
  call void @llvm.lifetime.start.p0(i64 8, ptr %6) #4
  %9 = load ptr, ptr %4, align 8, !tbaa !29
  store ptr %9, ptr %6, align 8, !tbaa !37
  %10 = load ptr, ptr %5, align 8, !tbaa !8
  %11 = icmp ne ptr %10, null
  br i1 %11, label %12, label %17

12:                                               ; preds = %2
  %13 = load ptr, ptr %5, align 8, !tbaa !8
  %14 = getelementptr inbounds nuw %struct.msszdd_decompressor_p, ptr %13, i32 0, i32 1
  %15 = load ptr, ptr %14, align 8, !tbaa !20
  %16 = icmp ne ptr %15, null
  br i1 %16, label %18, label %17

17:                                               ; preds = %12, %2
  store i32 1, ptr %7, align 4
  br label %35

18:                                               ; preds = %12
  %19 = load ptr, ptr %5, align 8, !tbaa !8
  %20 = getelementptr inbounds nuw %struct.msszdd_decompressor_p, ptr %19, i32 0, i32 1
  %21 = load ptr, ptr %20, align 8, !tbaa !20
  %22 = getelementptr inbounds nuw %struct.mspack_system, ptr %21, i32 0, i32 1
  %23 = load ptr, ptr %22, align 8, !tbaa !35
  %24 = load ptr, ptr %6, align 8, !tbaa !37
  %25 = getelementptr inbounds nuw %struct.msszddd_header_p, ptr %24, i32 0, i32 1
  %26 = load ptr, ptr %25, align 8, !tbaa !31
  call void %23(ptr noundef %26)
  %27 = load ptr, ptr %5, align 8, !tbaa !8
  %28 = getelementptr inbounds nuw %struct.msszdd_decompressor_p, ptr %27, i32 0, i32 1
  %29 = load ptr, ptr %28, align 8, !tbaa !20
  %30 = getelementptr inbounds nuw %struct.mspack_system, ptr %29, i32 0, i32 8
  %31 = load ptr, ptr %30, align 8, !tbaa !36
  %32 = load ptr, ptr %4, align 8, !tbaa !29
  call void %31(ptr noundef %32)
  %33 = load ptr, ptr %5, align 8, !tbaa !8
  %34 = getelementptr inbounds nuw %struct.msszdd_decompressor_p, ptr %33, i32 0, i32 2
  store i32 0, ptr %34, align 8, !tbaa !21
  store i32 0, ptr %7, align 4
  br label %35

35:                                               ; preds = %18, %17
  call void @llvm.lifetime.end.p0(i64 8, ptr %6) #4
  call void @llvm.lifetime.end.p0(i64 8, ptr %5) #4
  %36 = load i32, ptr %7, align 4
  switch i32 %36, label %38 [
    i32 0, label %37
    i32 1, label %37
  ]

37:                                               ; preds = %35, %35
  ret void

38:                                               ; preds = %35
  unreachable
}