; Function Attrs: nounwind uwtable
define internal void @szddd_close(ptr noundef %0, ptr noundef %1) #0 {
  %.not = icmp eq ptr %0, null
  br i1 %.not, label %15, label %3

3:                                                ; preds = %2
  %4 = getelementptr inbounds nuw i8, ptr %0, i64 40
  %5 = load ptr, ptr %4, align 8, !tbaa !17
  %.not10 = icmp eq ptr %5, null
  br i1 %.not10, label %15, label %6

6:                                                ; preds = %3
  %7 = getelementptr inbounds nuw i8, ptr %5, i64 8
  %8 = load ptr, ptr %7, align 8, !tbaa !30
  %9 = getelementptr inbounds nuw i8, ptr %1, i64 24
  %10 = load ptr, ptr %9, align 8, !tbaa !20
  tail call void %8(ptr noundef %10) #5
  %11 = load ptr, ptr %4, align 8, !tbaa !17
  %12 = getelementptr inbounds nuw i8, ptr %11, i64 64
  %13 = load ptr, ptr %12, align 8, !tbaa !31
  tail call void %13(ptr noundef %1) #5
  %14 = getelementptr inbounds nuw i8, ptr %0, i64 48
  store i32 0, ptr %14, align 8, !tbaa !18
  br label %15

15:                                               ; preds = %2, %3, %6
  ret void
}